target datalayout = "e-m:e-p270:32:32-p271:32:32-p272:64:64-i64:64-i128:128-f80:128-n8:16:32:64-S128"
target triple = "x86_64-pc-linux-gnu"

%"class.std::shared_ptr" = type { %"class.std::__shared_ptr" }
%"class.std::__shared_ptr" = type { ptr, %"class.std::__shared_count" }
%"class.std::__shared_count" = type { ptr }
%"class.std::vector.46" = type { %"struct.std::_Vector_base.47" }
%"struct.std::_Vector_base.47" = type { %"struct.std::_Vector_base<std::shared_ptr<arrow::DataType>, std::allocator<std::shared_ptr<arrow::DataType>>>::_Vector_impl" }
%"struct.std::_Vector_base<std::shared_ptr<arrow::DataType>, std::allocator<std::shared_ptr<arrow::DataType>>>::_Vector_impl" = type { %"struct.std::_Vector_base<std::shared_ptr<arrow::DataType>, std::allocator<std::shared_ptr<arrow::DataType>>>::_Vector_impl_data" }
%"struct.std::_Vector_base<std::shared_ptr<arrow::DataType>, std::allocator<std::shared_ptr<arrow::DataType>>>::_Vector_impl_data" = type { ptr, ptr, ptr }
%"class.std::initializer_list.467" = type { ptr, i64 }
%"class.std::allocator.48" = type { i8 }
%"class.std::_Sp_counted_base" = type { ptr, i32, i32 }

@__dso_handle = external hidden global i8
@_ZZN5arrow11BinaryTypesEvE5types = internal global %"class.std::vector.46" zeroinitializer, align 8
@_ZGVZN5arrow11BinaryTypesEvE5types = internal global i64 0, align 8
@__libc_single_threaded = external global i8, align 1

; Function Attrs: alwaysinline mustprogress nounwind uwtable
define linkonce_odr void @_ZN9__gnu_cxx12__atomic_addEPVii(ptr noundef %0, i32 noundef %1) #20 comdat {
  %3 = alloca ptr, align 8
  %4 = alloca i32, align 4
  %5 = alloca i32, align 4
  %6 = alloca i32, align 4
  store ptr %0, ptr %3, align 8, !tbaa !355
  store i32 %1, ptr %4, align 4, !tbaa !8
  %7 = load ptr, ptr %3, align 8, !tbaa !355
  %8 = load i32, ptr %4, align 4, !tbaa !8
  store i32 %8, ptr %5, align 4, !tbaa !8
  %9 = load i32, ptr %5, align 4
  %10 = atomicrmw volatile add ptr %7, i32 %9 acq_rel, align 4
  store i32 %10, ptr %6, align 4
  ret void
}

; Function Attrs: alwaysinline mustprogress nounwind uwtable
define linkonce_odr void @_ZN9__gnu_cxx19__atomic_add_singleEPii(ptr noundef %0, i32 noundef %1) #20 comdat {
  %3 = alloca ptr, align 8
  %4 = alloca i32, align 4
  store ptr %0, ptr %3, align 8, !tbaa !355
  store i32 %1, ptr %4, align 4, !tbaa !8
  %5 = load i32, ptr %4, align 4, !tbaa !8
  %6 = load ptr, ptr %3, align 8, !tbaa !355
  %7 = load i32, ptr %6, align 4, !tbaa !8
  %8 = add nsw i32 %7, %5
  store i32 %8, ptr %6, align 4, !tbaa !8
  ret void
}

; Function Attrs: alwaysinline mustprogress nounwind uwtable
define linkonce_odr noundef zeroext i1 @_ZN9__gnu_cxx20__is_single_threadedEv() #20 comdat {
  %1 = load i8, ptr @__libc_single_threaded, align 1, !tbaa !22
  %2 = icmp ne i8 %1, 0
  ret i1 %2
}

; Function Attrs: alwaysinline mustprogress uwtable
define linkonce_odr void @_ZN9__gnu_cxx21__atomic_add_dispatchEPii(ptr noundef %0, i32 noundef %1) #17 comdat {
  %3 = alloca ptr, align 8
  %4 = alloca i32, align 4
  store ptr %0, ptr %3, align 8, !tbaa !355
  store i32 %1, ptr %4, align 4, !tbaa !8
  %5 = call noundef zeroext i1 @_ZN9__gnu_cxx20__is_single_threadedEv() #15
  br i1 %5, label %6, label %9

6:                                                ; preds = %2
  %7 = load ptr, ptr %3, align 8, !tbaa !355
  %8 = load i32, ptr %4, align 4, !tbaa !8
  call void @_ZN9__gnu_cxx19__atomic_add_singleEPii(ptr noundef %7, i32 noundef %8)
  br label %12

9:                                                ; preds = %2
  %10 = load ptr, ptr %3, align 8, !tbaa !355
  %11 = load i32, ptr %4, align 4, !tbaa !8
  call void @_ZN9__gnu_cxx12__atomic_addEPVii(ptr noundef %10, i32 noundef %11)
  br label %12

12:                                               ; preds = %9, %6
  ret void
}

; Function Attrs: noinline noreturn nounwind uwtable
define linkonce_odr hidden void @__clang_call_terminate(ptr noundef %0) #18 comdat {
  %2 = call ptr @__cxa_begin_catch(ptr %0) #15
  call void @_ZSt9terminatev() #30
  unreachable
}

; Function Attrs: mustprogress uwtable
define linkonce_odr void @_ZNSt16_Sp_counted_baseILN9__gnu_cxx12_Lock_policyE2EE15_M_add_ref_copyEv(ptr noundef nonnull align 8 dereferenceable(16) %0) #1 comdat align 2 {
  %2 = alloca ptr, align 8
  store ptr %0, ptr %2, align 8, !tbaa !1049
  %3 = load ptr, ptr %2, align 8
  %4 = getelementptr inbounds nuw %"class.std::_Sp_counted_base", ptr %3, i32 0, i32 1
  call void @_ZN9__gnu_cxx21__atomic_add_dispatchEPii(ptr noundef %4, i32 noundef 1)
  ret void
}

; Function Attrs: mustprogress nounwind uwtable
define linkonce_odr void @_ZNSt14__shared_countILN9__gnu_cxx12_Lock_policyE2EEC2ERKS2_(ptr noundef nonnull align 8 dereferenceable(8) %0, ptr noundef nonnull align 8 dereferenceable(8) %1) unnamed_addr #0 comdat align 2 personality ptr @__gxx_personality_v0 {
  %3 = alloca ptr, align 8
  %4 = alloca ptr, align 8
  store ptr %0, ptr %3, align 8, !tbaa !1046
  store ptr %1, ptr %4, align 8, !tbaa !1046
  %5 = load ptr, ptr %3, align 8
  %6 = getelementptr inbounds nuw %"class.std::__shared_count", ptr %5, i32 0, i32 0
  %7 = load ptr, ptr %4, align 8, !tbaa !1046
  %8 = getelementptr inbounds nuw %"class.std::__shared_count", ptr %7, i32 0, i32 0
  %9 = load ptr, ptr %8, align 8, !tbaa !1048
  store ptr %9, ptr %6, align 8, !tbaa !1048
  %10 = getelementptr inbounds nuw %"class.std::__shared_count", ptr %5, i32 0, i32 0
  %11 = load ptr, ptr %10, align 8, !tbaa !1048
  %12 = icmp ne ptr %11, null
  br i1 %12, label %13, label %17

13:                                               ; preds = %2
  %14 = getelementptr inbounds nuw %"class.std::__shared_count", ptr %5, i32 0, i32 0
  %15 = load ptr, ptr %14, align 8, !tbaa !1048
  invoke void @_ZNSt16_Sp_counted_baseILN9__gnu_cxx12_Lock_policyE2EE15_M_add_ref_copyEv(ptr noundef nonnull align 8 dereferenceable(16) %15)
          to label %16 unwind label %18

16:                                               ; preds = %13
  br label %17

17:                                               ; preds = %16, %2
  ret void

18:                                               ; preds = %13
  %19 = landingpad { ptr, i32 }
          catch ptr null
  %20 = extractvalue { ptr, i32 } %19, 0
  call void @__clang_call_terminate(ptr %20) #30
  unreachable
}

; Function Attrs: mustprogress nounwind uwtable
define linkonce_odr void @_ZNSt15__new_allocatorISt10shared_ptrIN5arrow8DataTypeEEEC2Ev(ptr noundef nonnull align 1 dereferenceable(1) %0) unnamed_addr #0 comdat align 2 {
  %2 = alloca ptr, align 8
  store ptr %0, ptr %2, align 8, !tbaa !1525
  ret void
}

; Function Attrs: mustprogress nounwind uwtable
define linkonce_odr void @_ZNSt12__shared_ptrIN5arrow8DataTypeELN9__gnu_cxx12_Lock_policyE2EEC2ERKS4_(ptr noundef nonnull align 8 dereferenceable(16) %0, ptr noundef nonnull align 8 dereferenceable(16) %1) unnamed_addr #0 comdat align 2 {
  %3 = alloca ptr, align 8
  %4 = alloca ptr, align 8
  store ptr %0, ptr %3, align 8, !tbaa !262
  store ptr %1, ptr %4, align 8, !tbaa !262
  %5 = load ptr, ptr %3, align 8
  %6 = getelementptr inbounds nuw %"class.std::__shared_ptr", ptr %5, i32 0, i32 0
  %7 = load ptr, ptr %4, align 8, !tbaa !262
  %8 = getelementptr inbounds nuw %"class.std::__shared_ptr", ptr %7, i32 0, i32 0
  %9 = load ptr, ptr %8, align 8, !tbaa !264
  store ptr %9, ptr %6, align 8, !tbaa !264
  %10 = getelementptr inbounds nuw %"class.std::__shared_ptr", ptr %5, i32 0, i32 1
  %11 = load ptr, ptr %4, align 8, !tbaa !262
  %12 = getelementptr inbounds nuw %"class.std::__shared_ptr", ptr %11, i32 0, i32 1
  call void @_ZNSt14__shared_countILN9__gnu_cxx12_Lock_policyE2EEC2ERKS2_(ptr noundef nonnull align 8 dereferenceable(8) %10, ptr noundef nonnull align 8 dereferenceable(8) %12) #15
  ret void
}

; Function Attrs: mustprogress nounwind uwtable
define linkonce_odr void @_ZNSt15__new_allocatorISt10shared_ptrIN5arrow8DataTypeEEED2Ev(ptr noundef nonnull align 1 dereferenceable(1) %0) unnamed_addr #0 comdat align 2 {
  %2 = alloca ptr, align 8
  store ptr %0, ptr %2, align 8, !tbaa !1525
  ret void
}

; Function Attrs: mustprogress nounwind uwtable
define linkonce_odr void @_ZNSaISt10shared_ptrIN5arrow8DataTypeEEEC2Ev(ptr noundef nonnull align 1 dereferenceable(1) %0) unnamed_addr #0 comdat align 2 {
  %2 = alloca ptr, align 8
  store ptr %0, ptr %2, align 8, !tbaa !987
  %3 = load ptr, ptr %2, align 8
  call void @_ZNSt15__new_allocatorISt10shared_ptrIN5arrow8DataTypeEEEC2Ev(ptr noundef nonnull align 1 dereferenceable(1) %3) #15
  ret void
}

; Function Attrs: mustprogress nounwind uwtable
define linkonce_odr void @_ZNSt10shared_ptrIN5arrow8DataTypeEEC2ERKS2_(ptr noundef nonnull align 8 dereferenceable(16) %0, ptr noundef nonnull align 8 dereferenceable(16) %1) unnamed_addr #0 comdat align 2 {
  %3 = alloca ptr, align 8
  %4 = alloca ptr, align 8
  store ptr %0, ptr %3, align 8, !tbaa !193
  store ptr %1, ptr %4, align 8, !tbaa !193
  %5 = load ptr, ptr %3, align 8
  %6 = load ptr, ptr %4, align 8, !tbaa !193
  call void @_ZNSt12__shared_ptrIN5arrow8DataTypeELN9__gnu_cxx12_Lock_policyE2EEC2ERKS4_(ptr noundef nonnull align 8 dereferenceable(16) %5, ptr noundef nonnull align 8 dereferenceable(16) %6) #15
  ret void
}

; Function Attrs: mustprogress uwtable
define noundef nonnull align 8 dereferenceable(24) ptr @_ZN5arrow11BinaryTypesEv() #1 personality ptr @__gxx_personality_v0 {
  %1 = alloca %"class.std::initializer_list.467", align 8
  %2 = alloca [2 x %"class.std::shared_ptr"], align 8
  %3 = alloca ptr, align 8
  %4 = alloca ptr, align 8
  %5 = alloca i32, align 4
  %6 = alloca %"class.std::allocator.48", align 1
  %7 = load atomic i8, ptr @_ZGVZN5arrow11BinaryTypesEvE5types acquire, align 8
  %8 = icmp eq i8 %7, 0
  br i1 %8, label %9, label %33, !prof !831

9:                                                ; preds = %0
  %10 = call i32 @__cxa_guard_acquire(ptr @_ZGVZN5arrow11BinaryTypesEvE5types) #15
  %11 = icmp ne i32 %10, 0
  br i1 %11, label %12, label %33

12:                                               ; preds = %9
  call void @llvm.lifetime.start.p0(i64 32, ptr %2) #15
  store ptr %2, ptr %3, align 8
  %13 = invoke noundef nonnull align 8 dereferenceable(16) ptr @_ZN5arrow6binaryEv()
          to label %14 unwind label %34

14:                                               ; preds = %12
  call void @_ZNSt10shared_ptrIN5arrow8DataTypeEEC2ERKS2_(ptr noundef nonnull align 8 dereferenceable(16) %2, ptr noundef nonnull align 8 dereferenceable(16) %13) #15
  %15 = getelementptr inbounds %"class.std::shared_ptr", ptr %2, i64 1
  store ptr %15, ptr %3, align 8
  %16 = invoke noundef nonnull align 8 dereferenceable(16) ptr @_ZN5arrow12large_binaryEv()
          to label %17 unwind label %34

17:                                               ; preds = %14
  call void @_ZNSt10shared_ptrIN5arrow8DataTypeEEC2ERKS2_(ptr noundef nonnull align 8 dereferenceable(16) %15, ptr noundef nonnull align 8 dereferenceable(16) %16) #15
  %18 = getelementptr inbounds nuw %"class.std::initializer_list.467", ptr %1, i32 0, i32 0
  store ptr %2, ptr %18, align 8, !tbaa !984
  %19 = getelementptr inbounds nuw %"class.std::initializer_list.467", ptr %1, i32 0, i32 1
  store i64 2, ptr %19, align 8, !tbaa !986
  call void @llvm.lifetime.start.p0(i64 1, ptr %6) #15
  call void @_ZNSaISt10shared_ptrIN5arrow8DataTypeEEEC2Ev(ptr noundef nonnull align 1 dereferenceable(1) %6) #15
  %20 = getelementptr inbounds nuw { ptr, i64 }, ptr %1, i32 0, i32 0
  %21 = load ptr, ptr %20, align 8
  %22 = getelementptr inbounds nuw { ptr, i64 }, ptr %1, i32 0, i32 1
  %23 = load i64, ptr %22, align 8
  invoke void @_ZNSt6vectorISt10shared_ptrIN5arrow8DataTypeEESaIS3_EEC2ESt16initializer_listIS3_ERKS4_(ptr noundef nonnull align 8 dereferenceable(24) @_ZZN5arrow11BinaryTypesEvE5types, ptr %21, i64 %23, ptr noundef nonnull align 1 dereferenceable(1) %6)
          to label %24 unwind label %45

24:                                               ; preds = %17
  call void @_ZNSt15__new_allocatorISt10shared_ptrIN5arrow8DataTypeEEED2Ev(ptr noundef nonnull align 1 dereferenceable(1) %6) #15
  call void @llvm.lifetime.end.p0(i64 1, ptr %6) #15
  %25 = getelementptr inbounds [2 x %"class.std::shared_ptr"], ptr %2, i32 0, i32 0
  %26 = getelementptr inbounds %"class.std::shared_ptr", ptr %25, i64 2
  br label %27

27:                                               ; preds = %27, %24
  %28 = phi ptr [ %26, %24 ], [ %29, %27 ]
  %29 = getelementptr inbounds %"class.std::shared_ptr", ptr %28, i64 -1
  call void @_ZNSt12__shared_ptrIN5arrow8DataTypeELN9__gnu_cxx12_Lock_policyE2EED2Ev(ptr noundef nonnull align 8 dereferenceable(16) %29) #15
  %30 = icmp eq ptr %29, %25
  br i1 %30, label %31, label %27

31:                                               ; preds = %27
  call void @llvm.lifetime.end.p0(i64 32, ptr %2) #15
  %32 = call i32 @__cxa_atexit(ptr @_ZNSt6vectorISt10shared_ptrIN5arrow8DataTypeEESaIS3_EED2Ev, ptr @_ZZN5arrow11BinaryTypesEvE5types, ptr @__dso_handle) #15
  call void @__cxa_guard_release(ptr @_ZGVZN5arrow11BinaryTypesEvE5types) #15
  br label %33

33:                                               ; preds = %31, %9, %0
  ret ptr @_ZZN5arrow11BinaryTypesEvE5types

34:                                               ; preds = %14, %12
  %35 = landingpad { ptr, i32 }
          cleanup
  %36 = extractvalue { ptr, i32 } %35, 0
  store ptr %36, ptr %4, align 8
  %37 = extractvalue { ptr, i32 } %35, 1
  store i32 %37, ptr %5, align 4
  %38 = load ptr, ptr %3, align 8
  %39 = icmp eq ptr %2, %38
  br i1 %39, label %44, label %40

40:                                               ; preds = %40, %34
  %41 = phi ptr [ %38, %34 ], [ %42, %40 ]
  %42 = getelementptr inbounds %"class.std::shared_ptr", ptr %41, i64 -1
  call void @_ZNSt12__shared_ptrIN5arrow8DataTypeELN9__gnu_cxx12_Lock_policyE2EED2Ev(ptr noundef nonnull align 8 dereferenceable(16) %42) #15
  %43 = icmp eq ptr %42, %2
  br i1 %43, label %44, label %40

44:                                               ; preds = %40, %34
  br label %56

45:                                               ; preds = %17
  %46 = landingpad { ptr, i32 }
          cleanup
  %47 = extractvalue { ptr, i32 } %46, 0
  store ptr %47, ptr %4, align 8
  %48 = extractvalue { ptr, i32 } %46, 1
  store i32 %48, ptr %5, align 4
  call void @_ZNSt15__new_allocatorISt10shared_ptrIN5arrow8DataTypeEEED2Ev(ptr noundef nonnull align 1 dereferenceable(1) %6) #15
  call void @llvm.lifetime.end.p0(i64 1, ptr %6) #15
  %49 = getelementptr inbounds [2 x %"class.std::shared_ptr"], ptr %2, i32 0, i32 0
  %50 = getelementptr inbounds %"class.std::shared_ptr", ptr %49, i64 2
  br label %51

51:                                               ; preds = %51, %45
  %52 = phi ptr [ %50, %45 ], [ %53, %51 ]
  %53 = getelementptr inbounds %"class.std::shared_ptr", ptr %52, i64 -1
  call void @_ZNSt12__shared_ptrIN5arrow8DataTypeELN9__gnu_cxx12_Lock_policyE2EED2Ev(ptr noundef nonnull align 8 dereferenceable(16) %53) #15
  %54 = icmp eq ptr %53, %49
  br i1 %54, label %55, label %51

55:                                               ; preds = %51
  br label %56

56:                                               ; preds = %55, %44
  call void @llvm.lifetime.end.p0(i64 32, ptr %2) #15
  call void @__cxa_guard_abort(ptr @_ZGVZN5arrow11BinaryTypesEvE5types) #15
  br label %57

57:                                               ; preds = %56
  %58 = load ptr, ptr %4, align 8
  %59 = load i32, ptr %5, align 4
  %60 = insertvalue { ptr, i32 } poison, ptr %58, 0
  %61 = insertvalue { ptr, i32 } %60, i32 %59, 1
  resume { ptr, i32 } %61
}